(dp0
S'access_token'
p1
V38651451-kaJdjjRaHoK58UZiGYeJsJ3gXUs
p2
sS'scope'
p3
c__builtin__
set
p4
((lp5
Vedit
p6
aVread
p7
aVsubmit
p8
aVprivatemessages
p9
aVidentity
p10
atp11
Rp12
sS'refresh_token'
p13
S'38651451-YZkseik3snmI3kN1P47oT1kSKqA'
p14
s.